ccopy_reg
_reconstructor
p0
(cgoogle.oauth2.credentials
Credentials
p1
c__builtin__
object
p2
Ntp3
Rp4
(dp5
S'_token_uri'
p6
Vhttps://oauth2.googleapis.com/token
p7
sS'_client_secret'
p8
V0zKbabxd_MIgxbrPaOLQTCg7
p9
sS'_id_token'
p10
NsS'token'
p11
Vya29.GltGB22byz_dmaXCja50jbA92cJLms0A5Nq0q64Lec_sujvexrMWbG8VxuVqUJHegBVUglP35rO9-JZeiN4uwKIa9W2Ji6B5NnQwRyTwG92maUtE9oRvDf6q9RJD
p12
sS'_refresh_token'
p13
V1/BLovqW_mql4ao8Vp3NiAf5iJJ3IobP2GwNH_rqaBRcM
p14
sS'_scopes'
p15
(lp16
S'https://www.googleapis.com/auth/spreadsheets.readonly'
p17
asS'_client_id'
p18
V759808904373-aade0it86kpa0nrv7eg8i9cllsm7bpan.apps.googleusercontent.com
p19
sS'expiry'
p20
cdatetime
datetime
p21
(S'\x07\xe3\x07\x0f\x02\x08 \x01t*'
p22
tp23
Rp24
sb.